target datalayout = "e-m:e-p270:32:32-p271:32:32-p272:64:64-i64:64-i128:128-f80:128-n8:16:32:64-S128"
target triple = "x86_64-pc-linux-gnu"

%class.QString = type { ptr }
%class.SaveMeshAttributesDialog = type { %class.QDialog, ptr, ptr, i32, i32, i32, i32, %class.RichParameterList, %"class.std::vector.19", ptr, ptr }
%class.QDialog = type { %class.QWidget }
%class.QWidget = type { %class.QObject, %class.QPaintDevice, ptr }
%class.QObject = type { ptr, %class.QScopedPointer }
%class.QScopedPointer = type { ptr }
%class.QPaintDevice = type { ptr, i16, ptr }
%class.RichParameterList = type { %"class.std::__cxx11::list" }
%"class.std::__cxx11::list" = type { %"class.std::__cxx11::_List_base" }
%"class.std::__cxx11::_List_base" = type { %"struct.std::__cxx11::_List_base<RichParameter *, std::allocator<RichParameter *>>::_List_impl" }
%"struct.std::__cxx11::_List_base<RichParameter *, std::allocator<RichParameter *>>::_List_impl" = type { %"struct.std::__detail::_List_node_header" }
%"struct.std::__detail::_List_node_header" = type { %"struct.std::__detail::_List_node_base", i64 }
%"struct.std::__detail::_List_node_base" = type { ptr, ptr }
%"class.std::vector.19" = type { %"struct.std::_Vector_base.20" }
%"struct.std::_Vector_base.20" = type { %"struct.std::_Vector_base<std::__cxx11::basic_string<char>, std::allocator<std::__cxx11::basic_string<char>>>::_Vector_impl" }
%"struct.std::_Vector_base<std::__cxx11::basic_string<char>, std::allocator<std::__cxx11::basic_string<char>>>::_Vector_impl" = type { %"struct.std::_Vector_base<std::__cxx11::basic_string<char>, std::allocator<std::__cxx11::basic_string<char>>>::_Vector_impl_data" }
%"struct.std::_Vector_base<std::__cxx11::basic_string<char>, std::allocator<std::__cxx11::basic_string<char>>>::_Vector_impl_data" = type { ptr, ptr, ptr }
%class.Ui_SaveMeshAttributesDialog = type { ptr, ptr, ptr, ptr, ptr, ptr, ptr, ptr, ptr, ptr, ptr, ptr, ptr, ptr, ptr, ptr, ptr, ptr, ptr, ptr, ptr, ptr, ptr, ptr, ptr, ptr, ptr, ptr, ptr, ptr, ptr, ptr, ptr, ptr, ptr, ptr, ptr, ptr, ptr, ptr, ptr, ptr, ptr, ptr, ptr, ptr, ptr }

@.str.68 = private unnamed_addr constant [11 x i8] c" (default)\00", align 1
@.str.81 = private unnamed_addr constant [1 x i8] zeroinitializer, align 1

; Function Attrs: mustprogress uwtable
define linkonce_odr void @_ZN7QStringC2EPKc(ptr noundef nonnull align 8 dereferenceable(8) %0, ptr noundef %1) unnamed_addr #5 comdat align 2 {
  %3 = alloca ptr, align 8
  %4 = alloca ptr, align 8
  store ptr %0, ptr %3, align 8
  store ptr %1, ptr %4, align 8
  %5 = load ptr, ptr %3, align 8
  %6 = getelementptr inbounds %class.QString, ptr %5, i32 0, i32 0
  %7 = load ptr, ptr %4, align 8
  %8 = load ptr, ptr %4, align 8
  %9 = icmp ne ptr %8, null
  br i1 %9, label %10, label %14

10:                                               ; preds = %2
  %11 = load ptr, ptr %4, align 8
  %12 = call i64 @strlen(ptr noundef %11) #19
  %13 = trunc i64 %12 to i32
  br label %15

14:                                               ; preds = %2
  br label %15

15:                                               ; preds = %14, %10
  %16 = phi i32 [ %13, %10 ], [ -1, %14 ]
  %17 = call noundef ptr @_ZN7QString16fromAscii_helperEPKci(ptr noundef %7, i32 noundef %16)
  store ptr %17, ptr %6, align 8
  ret void
}

; Function Attrs: mustprogress uwtable
define void @_ZN24SaveMeshAttributesDialog37on_textureQualitySpinBox_valueChangedEi(ptr noundef nonnull align 8 dereferenceable(144) %0, i32 noundef %1) #5 align 2 personality ptr @__gxx_personality_v0 {
  %3 = alloca ptr, align 8
  %4 = alloca i32, align 4
  %5 = alloca %class.QString, align 8
  %6 = alloca ptr, align 8
  %7 = alloca i32, align 4
  %8 = alloca %class.QString, align 8
  store ptr %0, ptr %3, align 8
  store i32 %1, ptr %4, align 4
  %9 = load ptr, ptr %3, align 8
  %10 = load i32, ptr %4, align 4
  %11 = icmp eq i32 %10, -1
  br i1 %11, label %12, label %22

12:                                               ; preds = %2
  %13 = getelementptr inbounds %class.SaveMeshAttributesDialog, ptr %9, i32 0, i32 1
  %14 = load ptr, ptr %13, align 8
  %15 = getelementptr inbounds %class.Ui_SaveMeshAttributesDialog, ptr %14, i32 0, i32 31
  %16 = load ptr, ptr %15, align 8
  call void @_ZN7QStringC2EPKc(ptr noundef nonnull align 8 dereferenceable(8) %5, ptr noundef @.str.68)
  invoke void @_ZN8QSpinBox9setSuffixERK7QString(ptr noundef nonnull align 8 dereferenceable(48) %16, ptr noundef nonnull align 8 dereferenceable(8) %5)
          to label %17 unwind label %18

17:                                               ; preds = %12
  call void @_ZN7QStringD2Ev(ptr noundef nonnull align 8 dereferenceable(8) %5) #3
  br label %32

18:                                               ; preds = %12
  %19 = landingpad { ptr, i32 }
          cleanup
  %20 = extractvalue { ptr, i32 } %19, 0
  store ptr %20, ptr %6, align 8
  %21 = extractvalue { ptr, i32 } %19, 1
  store i32 %21, ptr %7, align 4
  call void @_ZN7QStringD2Ev(ptr noundef nonnull align 8 dereferenceable(8) %5) #3
  br label %33

22:                                               ; preds = %2
  %23 = getelementptr inbounds %class.SaveMeshAttributesDialog, ptr %9, i32 0, i32 1
  %24 = load ptr, ptr %23, align 8
  %25 = getelementptr inbounds %class.Ui_SaveMeshAttributesDialog, ptr %24, i32 0, i32 31
  %26 = load ptr, ptr %25, align 8
  call void @_ZN7QStringC2EPKc(ptr noundef nonnull align 8 dereferenceable(8) %8, ptr noundef @.str.81)
  invoke void @_ZN8QSpinBox9setSuffixERK7QString(ptr noundef nonnull align 8 dereferenceable(48) %26, ptr noundef nonnull align 8 dereferenceable(8) %8)
          to label %27 unwind label %28

27:                                               ; preds = %22
  call void @_ZN7QStringD2Ev(ptr noundef nonnull align 8 dereferenceable(8) %8) #3
  br label %32

28:                                               ; preds = %22
  %29 = landingpad { ptr, i32 }
          cleanup
  %30 = extractvalue { ptr, i32 } %29, 0
  store ptr %30, ptr %6, align 8
  %31 = extractvalue { ptr, i32 } %29, 1
  store i32 %31, ptr %7, align 4
  call void @_ZN7QStringD2Ev(ptr noundef nonnull align 8 dereferenceable(8) %8) #3
  br label %33

32:                                               ; preds = %27, %17
  ret void

33:                                               ; preds = %28, %18
  %34 = load ptr, ptr %6, align 8
  %35 = load i32, ptr %7, align 4
  %36 = insertvalue { ptr, i32 } poison, ptr %34, 0
  %37 = insertvalue { ptr, i32 } %36, i32 %35, 1
  resume { ptr, i32 } %37
}