; Function Attrs: mustprogress uwtable
define void @_ZN24SaveMeshAttributesDialog37on_textureQualitySpinBox_valueChangedEi(ptr nocapture noundef nonnull readonly align 8 dereferenceable(144) %0, i32 noundef %1) local_unnamed_addr #9 align 2 personality ptr @__gxx_personality_v0 {
  %3 = alloca %class.QString, align 8
  %4 = alloca %class.QString, align 8
  %5 = icmp eq i32 %1, -1
  %6 = getelementptr inbounds i8, ptr %0, i64 48
  %7 = load ptr, ptr %6, align 8
  %8 = getelementptr inbounds i8, ptr %7, i64 248
  %9 = load ptr, ptr %8, align 8
  br i1 %5, label %10, label %18

10:                                               ; preds = %2
  %11 = tail call noundef ptr @_ZN7QString16fromAscii_helperEPKci(ptr noundef nonnull @.str.68, i32 noundef 10)
  store ptr %11, ptr %3, align 8
  invoke void @_ZN8QSpinBox9setSuffixERK7QString(ptr noundef nonnull align 8 dereferenceable(48) %9, ptr noundef nonnull align 8 dereferenceable(8) %3)
          to label %12 unwind label %16

12:                                               ; preds = %10
  %13 = load ptr, ptr %3, align 8
  %14 = load atomic i32, ptr %13 monotonic, align 4
  switch i32 %14, label %_ZN9QtPrivate8RefCount5derefEv.exit.i [
    i32 0, label %_ZN7QStringD2Ev.exit.sink.split
    i32 -1, label %_ZN7QStringD2Ev.exit
  ]

_ZN9QtPrivate8RefCount5derefEv.exit.i:            ; preds = %12
  %15 = atomicrmw sub ptr %13, i32 1 seq_cst, align 4
  %.not.i = icmp eq i32 %15, 1
  br i1 %.not.i, label %_ZN9QtPrivate8RefCount5derefEv.exit._ZN9QtPrivate8RefCount5derefEv.exit.thread2_crit_edge.i, label %_ZN7QStringD2Ev.exit

_ZN9QtPrivate8RefCount5derefEv.exit._ZN9QtPrivate8RefCount5derefEv.exit.thread2_crit_edge.i: ; preds = %_ZN9QtPrivate8RefCount5derefEv.exit.i
  %.pre.i = load ptr, ptr %3, align 8
  br label %_ZN7QStringD2Ev.exit.sink.split

16:                                               ; preds = %10
  %17 = landingpad { ptr, i32 }
          cleanup
  br label %26

18:                                               ; preds = %2
  %19 = tail call noundef ptr @_ZN7QString16fromAscii_helperEPKci(ptr noundef nonnull @.str.81, i32 noundef 0)
  store ptr %19, ptr %4, align 8
  invoke void @_ZN8QSpinBox9setSuffixERK7QString(ptr noundef nonnull align 8 dereferenceable(48) %9, ptr noundef nonnull align 8 dereferenceable(8) %4)
          to label %20 unwind label %24

20:                                               ; preds = %18
  %21 = load ptr, ptr %4, align 8
  %22 = load atomic i32, ptr %21 monotonic, align 4
  switch i32 %22, label %_ZN9QtPrivate8RefCount5derefEv.exit.i6 [
    i32 0, label %_ZN7QStringD2Ev.exit.sink.split
    i32 -1, label %_ZN7QStringD2Ev.exit
  ]

_ZN9QtPrivate8RefCount5derefEv.exit.i6:           ; preds = %20
  %23 = atomicrmw sub ptr %21, i32 1 seq_cst, align 4
  %.not.i7 = icmp eq i32 %23, 1
  br i1 %.not.i7, label %_ZN9QtPrivate8RefCount5derefEv.exit._ZN9QtPrivate8RefCount5derefEv.exit.thread2_crit_edge.i8, label %_ZN7QStringD2Ev.exit

_ZN9QtPrivate8RefCount5derefEv.exit._ZN9QtPrivate8RefCount5derefEv.exit.thread2_crit_edge.i8: ; preds = %_ZN9QtPrivate8RefCount5derefEv.exit.i6
  %.pre.i9 = load ptr, ptr %4, align 8
  br label %_ZN7QStringD2Ev.exit.sink.split

24:                                               ; preds = %18
  %25 = landingpad { ptr, i32 }
          cleanup
  br label %26

_ZN7QStringD2Ev.exit.sink.split:                  ; preds = %20, %_ZN9QtPrivate8RefCount5derefEv.exit._ZN9QtPrivate8RefCount5derefEv.exit.thread2_crit_edge.i8, %12, %_ZN9QtPrivate8RefCount5derefEv.exit._ZN9QtPrivate8RefCount5derefEv.exit.thread2_crit_edge.i
  %.sink = phi ptr [ %.pre.i, %_ZN9QtPrivate8RefCount5derefEv.exit._ZN9QtPrivate8RefCount5derefEv.exit.thread2_crit_edge.i ], [ %13, %12 ], [ %.pre.i9, %_ZN9QtPrivate8RefCount5derefEv.exit._ZN9QtPrivate8RefCount5derefEv.exit.thread2_crit_edge.i8 ], [ %21, %20 ]
  call void @_ZN10QArrayData10deallocateEPS_mm(ptr noundef %.sink, i64 noundef 2, i64 noundef 8) #21
  br label %_ZN7QStringD2Ev.exit

_ZN7QStringD2Ev.exit:                             ; preds = %_ZN7QStringD2Ev.exit.sink.split, %_ZN9QtPrivate8RefCount5derefEv.exit.i6, %20, %_ZN9QtPrivate8RefCount5derefEv.exit.i, %12
  ret void

26:                                               ; preds = %24, %16
  %.sink11 = phi ptr [ %4, %24 ], [ %3, %16 ]
  %.pn = phi { ptr, i32 } [ %25, %24 ], [ %17, %16 ]
  call void @_ZN7QStringD2Ev(ptr noundef nonnull align 8 dereferenceable(8) %.sink11) #21
  resume { ptr, i32 } %.pn
}